; Function Attrs: nounwind uwtable
define hidden ptr @SDL_GetRenderMetalLayer_REAL(ptr noundef %0) local_unnamed_addr #0 {
  %2 = tail call zeroext i1 @SDL_ObjectValid(ptr noundef %0, i32 noundef 2) #15
  br i1 %2, label %5, label %3

3:                                                ; preds = %1
  %4 = tail call zeroext i1 (ptr, ...) @SDL_SetError_REAL(ptr noundef nonnull @.str.2, ptr noundef nonnull @.str.5) #15
  br label %41

5:                                                ; preds = %1
  %6 = getelementptr inbounds nuw i8, ptr %0, i64 688
  %7 = load i8, ptr %6, align 8, !range !3, !noundef !4
  %8 = trunc nuw i8 %7 to i1
  br i1 %8, label %9, label %11

9:                                                ; preds = %5
  %10 = tail call zeroext i1 (ptr, ...) @SDL_SetError_REAL(ptr noundef nonnull @.str.29) #15
  br label %41

11:                                               ; preds = %5
  %12 = getelementptr inbounds nuw i8, ptr %0, i64 200
  %13 = load ptr, ptr %12, align 8
  %.not = icmp eq ptr %13, null
  br i1 %.not, label %41, label %14

14:                                               ; preds = %11
  %15 = getelementptr inbounds nuw i8, ptr %0, i64 536
  %16 = load ptr, ptr %15, align 8
  %.not.i = icmp eq ptr %16, null
  br i1 %.not.i, label %FlushRenderCommands.exit, label %17

17:                                               ; preds = %14
  %18 = getelementptr inbounds nuw i8, ptr %0, i64 104
  %19 = load ptr, ptr %18, align 8
  %20 = getelementptr inbounds nuw i8, ptr %0, i64 624
  %21 = load ptr, ptr %20, align 8
  %22 = getelementptr inbounds nuw i8, ptr %0, i64 632
  %23 = load i64, ptr %22, align 8
  %24 = tail call zeroext i1 %19(ptr noundef nonnull %0, ptr noundef nonnull %16, ptr noundef %21, i64 noundef %23) #15
  %25 = getelementptr inbounds nuw i8, ptr %0, i64 544
  %26 = load ptr, ptr %25, align 8
  %.not22.i = icmp eq ptr %26, null
  br i1 %.not22.i, label %32, label %27

27:                                               ; preds = %17
  %28 = getelementptr inbounds nuw i8, ptr %0, i64 552
  %29 = load ptr, ptr %28, align 8
  %30 = getelementptr inbounds nuw i8, ptr %26, i64 80
  store ptr %29, ptr %30, align 8
  %31 = load ptr, ptr %15, align 8
  store ptr %31, ptr %28, align 8
  tail call void @llvm.memset.p0.i64(ptr noundef nonnull align 8 dereferenceable(16) %15, i8 0, i64 16, i1 false)
  br label %32

32:                                               ; preds = %27, %17
  store i64 0, ptr %22, align 8
  %33 = getelementptr inbounds nuw i8, ptr %0, i64 560
  %34 = load i32, ptr %33, align 8
  %35 = add i32 %34, 1
  store i32 %35, ptr %33, align 8
  %36 = getelementptr inbounds nuw i8, ptr %0, i64 617
  store i8 0, ptr %36, align 1
  %37 = getelementptr inbounds nuw i8, ptr %0, i64 618
  store i8 0, ptr %37, align 2
  %38 = getelementptr inbounds nuw i8, ptr %0, i64 619
  store i8 0, ptr %38, align 1
  %.pre = load ptr, ptr %12, align 8
  br label %FlushRenderCommands.exit

FlushRenderCommands.exit:                         ; preds = %14, %32
  %39 = phi ptr [ %13, %14 ], [ %.pre, %32 ]
  %40 = tail call ptr %39(ptr noundef nonnull %0) #15
  br label %41

41:                                               ; preds = %11, %FlushRenderCommands.exit, %9, %3
  %.0 = phi ptr [ null, %9 ], [ %40, %FlushRenderCommands.exit ], [ null, %3 ], [ null, %11 ]
  ret ptr %.0
}